target datalayout = "e-m:e-p270:32:32-p271:32:32-p272:64:64-i64:64-i128:128-f80:128-n8:16:32:64-S128"
target triple = "x86_64-pc-linux-gnu"

%struct.dt_database_t = type { i32, ptr, ptr, ptr, ptr, ptr, ptr, ptr, i32 }

@.str = private unnamed_addr constant [8 x i8] c"%s.lock\00", align 1
@.str.1 = private unnamed_addr constant [2 x i8] c"/\00", align 1
@.str.3 = private unnamed_addr constant [25 x i8] c"error starting darktable\00", align 1
@.str.4 = private unnamed_addr constant [8 x i8] c"_cancel\00", align 1
@.str.5 = private unnamed_addr constant [28 x i8] c"_delete database lock files\00", align 1
@.str.6 = private unnamed_addr constant [14 x i8] c"are you sure?\00", align 1
@.str.7 = private unnamed_addr constant [47 x i8] c"\0Ado you really want to delete the lock files?\0A\00", align 1
@.str.8 = private unnamed_addr constant [4 x i8] c"_no\00", align 1
@.str.9 = private unnamed_addr constant [5 x i8] c"_yes\00", align 1
@.str.10 = private unnamed_addr constant [14 x i8] c"/data.db.lock\00", align 1
@.str.11 = private unnamed_addr constant [17 x i8] c"/library.db.lock\00", align 1
@.str.12 = private unnamed_addr constant [5 x i8] c"done\00", align 1
@.str.13 = private unnamed_addr constant [69 x i8] c"\0Asuccessfully deleted the lock files.\0Ayou can now restart darktable\0A\00", align 1
@.str.14 = private unnamed_addr constant [4 x i8] c"_ok\00", align 1
@.str.15 = private unnamed_addr constant [6 x i8] c"error\00", align 1
@.str.16 = private unnamed_addr constant [169 x i8] c"\0Aat least one file could not be deleted.\0Ayou may try to manually delete the files <i>data.db.lock</i> and <i>library.db.lock</i>\0Ain folder <a href=\22file:///%s\22>%s</a>.\0A\00", align 1

; Function Attrs: nounwind uwtable
define void @dt_database_show_error(ptr noundef %0) #0 {
  %2 = alloca ptr, align 8
  %3 = alloca [1024 x i8], align 16
  %4 = alloca ptr, align 8
  %5 = alloca ptr, align 8
  %6 = alloca ptr, align 8
  %7 = alloca i32, align 4
  %8 = alloca i32, align 4
  %9 = alloca i32, align 4
  %10 = alloca ptr, align 8
  store ptr %0, ptr %2, align 8, !tbaa !6
  %11 = load ptr, ptr %2, align 8, !tbaa !6
  %12 = getelementptr inbounds nuw %struct.dt_database_t, ptr %11, i32 0, i32 0
  %13 = load i32, ptr %12, align 8, !tbaa !16
  %14 = icmp ne i32 %13, 0
  br i1 %14, label %95, label %15

15:                                               ; preds = %1
  call void @llvm.lifetime.start.p0(i64 1024, ptr %3) #13
  %16 = getelementptr inbounds [1024 x i8], ptr %3, i64 0, i64 0
  %17 = load ptr, ptr %2, align 8, !tbaa !6
  %18 = getelementptr inbounds nuw %struct.dt_database_t, ptr %17, i32 0, i32 7
  %19 = load ptr, ptr %18, align 8, !tbaa !17
  %20 = call i32 (ptr, i64, ptr, ...) @snprintf(ptr noundef %16, i64 noundef 1024, ptr noundef @.str, ptr noundef %19) #13
  call void @llvm.lifetime.start.p0(i64 8, ptr %4) #13
  %21 = getelementptr inbounds [1024 x i8], ptr %3, i64 0, i64 0
  %22 = call noalias ptr @g_strdup(ptr noundef %21)
  store ptr %22, ptr %4, align 8, !tbaa !18
  call void @llvm.lifetime.start.p0(i64 8, ptr %5) #13
  %23 = load ptr, ptr %4, align 8, !tbaa !18
  %24 = call ptr @g_strrstr(ptr noundef %23, ptr noundef @.str.1)
  store ptr %24, ptr %5, align 8, !tbaa !18
  %25 = load ptr, ptr %5, align 8, !tbaa !18
  %26 = icmp ne ptr %25, null
  br i1 %26, label %27, label %29

27:                                               ; preds = %15
  %28 = load ptr, ptr %5, align 8, !tbaa !18
  store i8 0, ptr %28, align 1, !tbaa !19
  br label %29

29:                                               ; preds = %27, %15
  call void @llvm.lifetime.start.p0(i64 8, ptr %6) #13
  %30 = call ptr @dcgettext(ptr noundef null, ptr noundef @.str.2, i32 noundef 5) #13
  %31 = load ptr, ptr %2, align 8, !tbaa !6
  %32 = getelementptr inbounds nuw %struct.dt_database_t, ptr %31, i32 0, i32 8
  %33 = load i32, ptr %32, align 8, !tbaa !20
  %34 = call ptr (ptr, ...) @g_markup_printf_escaped(ptr noundef %30, i32 noundef %33)
  store ptr %34, ptr %6, align 8, !tbaa !18
  call void @llvm.lifetime.start.p0(i64 4, ptr %7) #13
  %35 = call ptr @dcgettext(ptr noundef null, ptr noundef @.str.3, i32 noundef 5) #13
  %36 = load ptr, ptr %6, align 8, !tbaa !18
  %37 = call ptr @dcgettext(ptr noundef null, ptr noundef @.str.4, i32 noundef 5) #13
  %38 = call ptr @dcgettext(ptr noundef null, ptr noundef @.str.5, i32 noundef 5) #13
  %39 = call i32 @dt_gui_show_standalone_yes_no_dialog(ptr noundef %35, ptr noundef %36, ptr noundef %37, ptr noundef %38)
  store i32 %39, ptr %7, align 4, !tbaa !21
  %40 = load i32, ptr %7, align 4, !tbaa !21
  %41 = icmp ne i32 %40, 0
  br i1 %41, label %42, label %92

42:                                               ; preds = %29
  call void @llvm.lifetime.start.p0(i64 4, ptr %8) #13
  %43 = call ptr @dcgettext(ptr noundef null, ptr noundef @.str.6, i32 noundef 5) #13
  %44 = call ptr @dcgettext(ptr noundef null, ptr noundef @.str.7, i32 noundef 5) #13
  %45 = call ptr @dcgettext(ptr noundef null, ptr noundef @.str.8, i32 noundef 5) #13
  %46 = call ptr @dcgettext(ptr noundef null, ptr noundef @.str.9, i32 noundef 5) #13
  %47 = call i32 @dt_gui_show_standalone_yes_no_dialog(ptr noundef %43, ptr noundef %44, ptr noundef %45, ptr noundef %46)
  store i32 %47, ptr %8, align 4, !tbaa !21
  %48 = load i32, ptr %8, align 4, !tbaa !21
  %49 = icmp ne i32 %48, 0
  br i1 %49, label %50, label %91

50:                                               ; preds = %42
  call void @llvm.lifetime.start.p0(i64 4, ptr %9) #13
  store i32 0, ptr %9, align 4, !tbaa !21
  call void @llvm.lifetime.start.p0(i64 8, ptr %10) #13
  %51 = load ptr, ptr %4, align 8, !tbaa !18
  %52 = call noalias ptr (ptr, ...) @g_strconcat(ptr noundef %51, ptr noundef @.str.10, ptr noundef null)
  store ptr %52, ptr %10, align 8, !tbaa !18
  %53 = load ptr, ptr %10, align 8, !tbaa !18
  %54 = call i32 @g_access(ptr noundef %53, i32 noundef 0)
  %55 = icmp ne i32 %54, -1
  br i1 %55, label %56, label %61

56:                                               ; preds = %50
  %57 = load ptr, ptr %10, align 8, !tbaa !18
  %58 = call i32 @remove(ptr noundef %57) #13
  %59 = load i32, ptr %9, align 4, !tbaa !21
  %60 = add nsw i32 %59, %58
  store i32 %60, ptr %9, align 4, !tbaa !21
  br label %61

61:                                               ; preds = %56, %50
  %62 = load ptr, ptr %10, align 8, !tbaa !18
  call void @g_free(ptr noundef %62)
  %63 = load ptr, ptr %4, align 8, !tbaa !18
  %64 = call noalias ptr (ptr, ...) @g_strconcat(ptr noundef %63, ptr noundef @.str.11, ptr noundef null)
  store ptr %64, ptr %10, align 8, !tbaa !18
  %65 = load ptr, ptr %10, align 8, !tbaa !18
  %66 = call i32 @g_access(ptr noundef %65, i32 noundef 0)
  %67 = icmp ne i32 %66, -1
  br i1 %67, label %68, label %73

68:                                               ; preds = %61
  %69 = load ptr, ptr %10, align 8, !tbaa !18
  %70 = call i32 @remove(ptr noundef %69) #13
  %71 = load i32, ptr %9, align 4, !tbaa !21
  %72 = add nsw i32 %71, %70
  store i32 %72, ptr %9, align 4, !tbaa !21
  br label %73

73:                                               ; preds = %68, %61
  %74 = load ptr, ptr %10, align 8, !tbaa !18
  call void @g_free(ptr noundef %74)
  %75 = load i32, ptr %9, align 4, !tbaa !21
  %76 = icmp eq i32 %75, 0
  br i1 %76, label %77, label %82

77:                                               ; preds = %73
  %78 = call ptr @dcgettext(ptr noundef null, ptr noundef @.str.12, i32 noundef 5) #13
  %79 = call ptr @dcgettext(ptr noundef null, ptr noundef @.str.13, i32 noundef 5) #13
  %80 = call ptr @dcgettext(ptr noundef null, ptr noundef @.str.14, i32 noundef 5) #13
  %81 = call i32 @dt_gui_show_standalone_yes_no_dialog(ptr noundef %78, ptr noundef %79, ptr noundef %80, ptr noundef null)
  br label %90

82:                                               ; preds = %73
  %83 = call ptr @dcgettext(ptr noundef null, ptr noundef @.str.15, i32 noundef 5) #13
  %84 = call ptr @dcgettext(ptr noundef null, ptr noundef @.str.16, i32 noundef 5) #13
  %85 = load ptr, ptr %4, align 8, !tbaa !18
  %86 = load ptr, ptr %4, align 8, !tbaa !18
  %87 = call ptr (ptr, ...) @g_markup_printf_escaped(ptr noundef %84, ptr noundef %85, ptr noundef %86)
  %88 = call ptr @dcgettext(ptr noundef null, ptr noundef @.str.14, i32 noundef 5) #13
  %89 = call i32 @dt_gui_show_standalone_yes_no_dialog(ptr noundef %83, ptr noundef %87, ptr noundef %88, ptr noundef null)
  br label %90

90:                                               ; preds = %82, %77
  call void @llvm.lifetime.end.p0(i64 8, ptr %10) #13
  call void @llvm.lifetime.end.p0(i64 4, ptr %9) #13
  br label %91

91:                                               ; preds = %90, %42
  call void @llvm.lifetime.end.p0(i64 4, ptr %8) #13
  br label %92

92:                                               ; preds = %91, %29
  %93 = load ptr, ptr %4, align 8, !tbaa !18
  call void @g_free(ptr noundef %93)
  %94 = load ptr, ptr %6, align 8, !tbaa !18
  call void @g_free(ptr noundef %94)
  call void @llvm.lifetime.end.p0(i64 4, ptr %7) #13
  call void @llvm.lifetime.end.p0(i64 8, ptr %6) #13
  call void @llvm.lifetime.end.p0(i64 8, ptr %5) #13
  call void @llvm.lifetime.end.p0(i64 8, ptr %4) #13
  call void @llvm.lifetime.end.p0(i64 1024, ptr %3) #13
  br label %95

95:                                               ; preds = %92, %1
  %96 = load ptr, ptr %2, align 8, !tbaa !6
  %97 = getelementptr inbounds nuw %struct.dt_database_t, ptr %96, i32 0, i32 6
  %98 = load ptr, ptr %97, align 8, !tbaa !22
  call void @g_free(ptr noundef %98)
  %99 = load ptr, ptr %2, align 8, !tbaa !6
  %100 = getelementptr inbounds nuw %struct.dt_database_t, ptr %99, i32 0, i32 7
  %101 = load ptr, ptr %100, align 8, !tbaa !17
  call void @g_free(ptr noundef %101)
  %102 = load ptr, ptr %2, align 8, !tbaa !6
  %103 = getelementptr inbounds nuw %struct.dt_database_t, ptr %102, i32 0, i32 8
  store i32 0, ptr %103, align 8, !tbaa !20
  %104 = load ptr, ptr %2, align 8, !tbaa !6
  %105 = getelementptr inbounds nuw %struct.dt_database_t, ptr %104, i32 0, i32 6
  store ptr null, ptr %105, align 8, !tbaa !22
  %106 = load ptr, ptr %2, align 8, !tbaa !6
  %107 = getelementptr inbounds nuw %struct.dt_database_t, ptr %106, i32 0, i32 7
  store ptr null, ptr %107, align 8, !tbaa !17
  ret void
}