; Function Attrs: nounwind uwtable
define void @dt_database_show_error(ptr noundef captures(none) %0) local_unnamed_addr #0 {
  %2 = alloca [1024 x i8], align 16
  %3 = load i32, ptr %0, align 8, !tbaa !14
  %.not = icmp eq i32 %3, 0
  br i1 %.not, label %4, label %51

4:                                                ; preds = %1
  call void @llvm.lifetime.start.p0(i64 1024, ptr nonnull %2) #18
  %5 = getelementptr inbounds nuw i8, ptr %0, i64 56
  %6 = load ptr, ptr %5, align 8, !tbaa !15
  %7 = call i32 (ptr, i64, ptr, ...) @snprintf(ptr noundef nonnull dereferenceable(1) %2, i64 noundef 1024, ptr noundef nonnull @.str, ptr noundef %6) #18
  %8 = call noalias ptr @g_strdup(ptr noundef nonnull %2) #18
  %9 = call ptr @g_strrstr(ptr noundef %8, ptr noundef nonnull @.str.1) #18
  %.not29 = icmp eq ptr %9, null
  br i1 %.not29, label %11, label %10

10:                                               ; preds = %4
  store i8 0, ptr %9, align 1, !tbaa !16
  br label %11

11:                                               ; preds = %10, %4
  %12 = call ptr @dcgettext(ptr noundef null, ptr noundef nonnull @.str.2, i32 noundef 5) #18
  %13 = getelementptr inbounds nuw i8, ptr %0, i64 64
  %14 = load i32, ptr %13, align 8, !tbaa !17
  %15 = call ptr (ptr, ...) @g_markup_printf_escaped(ptr noundef %12, i32 noundef %14) #18
  %16 = call ptr @dcgettext(ptr noundef null, ptr noundef nonnull @.str.3, i32 noundef 5) #18
  %17 = call ptr @dcgettext(ptr noundef null, ptr noundef nonnull @.str.4, i32 noundef 5) #18
  %18 = call ptr @dcgettext(ptr noundef null, ptr noundef nonnull @.str.5, i32 noundef 5) #18
  %19 = call i32 @dt_gui_show_standalone_yes_no_dialog(ptr noundef %16, ptr noundef %15, ptr noundef %17, ptr noundef %18) #18
  %.not30 = icmp eq i32 %19, 0
  br i1 %.not30, label %50, label %20

20:                                               ; preds = %11
  %21 = call ptr @dcgettext(ptr noundef null, ptr noundef nonnull @.str.6, i32 noundef 5) #18
  %22 = call ptr @dcgettext(ptr noundef null, ptr noundef nonnull @.str.7, i32 noundef 5) #18
  %23 = call ptr @dcgettext(ptr noundef null, ptr noundef nonnull @.str.8, i32 noundef 5) #18
  %24 = call ptr @dcgettext(ptr noundef null, ptr noundef nonnull @.str.9, i32 noundef 5) #18
  %25 = call i32 @dt_gui_show_standalone_yes_no_dialog(ptr noundef %21, ptr noundef %22, ptr noundef %23, ptr noundef %24) #18
  %.not31 = icmp eq i32 %25, 0
  br i1 %.not31, label %50, label %26

26:                                               ; preds = %20
  %27 = call noalias ptr (ptr, ...) @g_strconcat(ptr noundef %8, ptr noundef nonnull @.str.10, ptr noundef null) #18
  %28 = call i32 @g_access(ptr noundef %27, i32 noundef 0) #18
  %.not32 = icmp eq i32 %28, -1
  br i1 %.not32, label %31, label %29

29:                                               ; preds = %26
  %30 = call i32 @remove(ptr noundef %27) #18
  br label %31

31:                                               ; preds = %29, %26
  %.0 = phi i32 [ %30, %29 ], [ 0, %26 ]
  call void @g_free(ptr noundef %27) #18
  %32 = call noalias ptr (ptr, ...) @g_strconcat(ptr noundef %8, ptr noundef nonnull @.str.11, ptr noundef null) #18
  %33 = call i32 @g_access(ptr noundef %32, i32 noundef 0) #18
  %.not33 = icmp eq i32 %33, -1
  br i1 %.not33, label %37, label %34

34:                                               ; preds = %31
  %35 = call i32 @remove(ptr noundef %32) #18
  %36 = add nsw i32 %35, %.0
  br label %37

37:                                               ; preds = %34, %31
  %.1 = phi i32 [ %36, %34 ], [ %.0, %31 ]
  call void @g_free(ptr noundef %32) #18
  %38 = icmp eq i32 %.1, 0
  br i1 %38, label %39, label %44

39:                                               ; preds = %37
  %40 = call ptr @dcgettext(ptr noundef null, ptr noundef nonnull @.str.12, i32 noundef 5) #18
  %41 = call ptr @dcgettext(ptr noundef null, ptr noundef nonnull @.str.13, i32 noundef 5) #18
  %42 = call ptr @dcgettext(ptr noundef null, ptr noundef nonnull @.str.14, i32 noundef 5) #18
  %43 = call i32 @dt_gui_show_standalone_yes_no_dialog(ptr noundef %40, ptr noundef %41, ptr noundef %42, ptr noundef null) #18
  br label %50

44:                                               ; preds = %37
  %45 = call ptr @dcgettext(ptr noundef null, ptr noundef nonnull @.str.15, i32 noundef 5) #18
  %46 = call ptr @dcgettext(ptr noundef null, ptr noundef nonnull @.str.16, i32 noundef 5) #18
  %47 = call ptr (ptr, ...) @g_markup_printf_escaped(ptr noundef %46, ptr noundef %8, ptr noundef %8) #18
  %48 = call ptr @dcgettext(ptr noundef null, ptr noundef nonnull @.str.14, i32 noundef 5) #18
  %49 = call i32 @dt_gui_show_standalone_yes_no_dialog(ptr noundef %45, ptr noundef %47, ptr noundef %48, ptr noundef null) #18
  br label %50

50:                                               ; preds = %20, %44, %39, %11
  call void @g_free(ptr noundef %8) #18
  call void @g_free(ptr noundef %15) #18
  call void @llvm.lifetime.end.p0(i64 1024, ptr nonnull %2) #18
  br label %51

51:                                               ; preds = %50, %1
  %52 = getelementptr inbounds nuw i8, ptr %0, i64 48
  %53 = load ptr, ptr %52, align 8, !tbaa !18
  call void @g_free(ptr noundef %53) #18
  %54 = getelementptr inbounds nuw i8, ptr %0, i64 56
  %55 = load ptr, ptr %54, align 8, !tbaa !15
  call void @g_free(ptr noundef %55) #18
  call void @llvm.memset.p0.i64(ptr noundef nonnull align 8 dereferenceable(20) %52, i8 0, i64 20, i1 false)
  ret void
}